target datalayout = "e-m:e-p270:32:32-p271:32:32-p272:64:64-i64:64-i128:128-f80:128-n8:16:32:64-S128"
target triple = "x86_64-pc-linux-gnu"

%struct.ScanKeyData = type { i32, i16, i16, i32, i32, %struct.FmgrInfo, i64 }
%struct.FmgrInfo = type { ptr, i32, i16, i8, i8, i8, ptr, ptr, ptr }
%struct.RelationData = type { %struct.RelFileLocator, ptr, i32, i32, i8, i8, i8, i8, i8, i32, i32, i32, i32, ptr, ptr, i32, %struct.LockInfoData, ptr, ptr, ptr, ptr, ptr, i8, ptr, ptr, ptr, ptr, ptr, ptr, i32, ptr, i8, ptr, ptr, i32, i8, i32, ptr, i8, ptr, ptr, ptr, ptr, ptr, ptr, ptr, i32, ptr, ptr, ptr, ptr, ptr, ptr, ptr, ptr, ptr, ptr, ptr, ptr, ptr, ptr, ptr, ptr, ptr, ptr, ptr, i32, i8, ptr }
%struct.RelFileLocator = type { i32, i32, i32 }
%struct.LockInfoData = type { %struct.LockRelId }
%struct.LockRelId = type { i32, i32 }
%struct.FormData_pg_class = type { i32, %struct.nameData, i32, i32, i32, i32, i32, i32, i32, i32, float, i32, i32, i8, i8, i8, i8, i16, i16, i8, i8, i8, i8, i8, i8, i8, i8, i32, i32, i32 }
%struct.nameData = type { [64 x i8] }
%struct.FormData_pg_trigger = type { i32, i32, i32, %struct.nameData, i32, i16, i8, i8, i32, i32, i32, i8, i8, i16, %struct.int2vector }
%struct.int2vector = type { i32, i32, i32, i32, i32, i32, [0 x i16] }
%struct.HeapTupleData = type { i32, %struct.ItemPointerData, i32, ptr }
%struct.ItemPointerData = type { %struct.BlockIdData, i16 }
%struct.BlockIdData = type { i16, i16 }
%struct.PartitionDescData = type { i32, i8, ptr, ptr, ptr, i32, i32, i32 }
%struct.HeapTupleHeaderData = type { %union.anon, %struct.ItemPointerData, i16, i16, i8, [0 x i8] }
%union.anon = type { %struct.HeapTupleFields }
%struct.HeapTupleFields = type { i32, i32, %union.anon.1 }
%union.anon.1 = type { i32 }

; Function Attrs: inlinehint nounwind uwtable
define internal ptr @GETSTRUCT(ptr noundef %0) #7 {
  %2 = alloca ptr, align 8
  store ptr %0, ptr %2, align 8
  %3 = load ptr, ptr %2, align 8
  %4 = getelementptr inbounds nuw %struct.HeapTupleData, ptr %3, i32 0, i32 3
  %5 = load ptr, ptr %4, align 8
  %6 = load ptr, ptr %2, align 8
  %7 = getelementptr inbounds nuw %struct.HeapTupleData, ptr %6, i32 0, i32 3
  %8 = load ptr, ptr %7, align 8
  %9 = getelementptr inbounds nuw %struct.HeapTupleHeaderData, ptr %8, i32 0, i32 4
  %10 = load i8, ptr %9, align 2
  %11 = zext i8 %10 to i32
  %12 = sext i32 %11 to i64
  %13 = getelementptr inbounds i8, ptr %5, i64 %12
  ret ptr %13
}

; Function Attrs: inlinehint nounwind uwtable
define internal i64 @ObjectIdGetDatum(i32 noundef %0) #7 {
  %2 = alloca i32, align 4
  store i32 %0, ptr %2, align 4
  %3 = load i32, ptr %2, align 4
  %4 = zext i32 %3 to i64
  ret i64 %4
}

; Function Attrs: nounwind uwtable
define internal void @renametrig_partition(ptr noundef %0, i32 noundef %1, i32 noundef %2, ptr noundef %3, ptr noundef %4) #0 {
  %6 = alloca ptr, align 8
  %7 = alloca i32, align 4
  %8 = alloca i32, align 4
  %9 = alloca ptr, align 8
  %10 = alloca ptr, align 8
  %11 = alloca ptr, align 8
  %12 = alloca %struct.ScanKeyData, align 8
  %13 = alloca ptr, align 8
  %14 = alloca ptr, align 8
  %15 = alloca ptr, align 8
  %16 = alloca i32, align 4
  %17 = alloca ptr, align 8
  %18 = alloca i32, align 4
  %19 = alloca i32, align 4
  store ptr %0, ptr %6, align 8
  store i32 %1, ptr %7, align 4
  store i32 %2, ptr %8, align 4
  store ptr %3, ptr %9, align 8
  store ptr %4, ptr %10, align 8
  call void @llvm.lifetime.start.p0(i64 8, ptr %11) #12
  call void @llvm.lifetime.start.p0(i64 72, ptr %12) #12
  call void @llvm.lifetime.start.p0(i64 8, ptr %13) #12
  %20 = load i32, ptr %7, align 4
  %21 = call i64 @ObjectIdGetDatum(i32 noundef %20)
  call void @ScanKeyInit(ptr noundef %12, i16 noundef signext 2, i16 noundef zeroext 3, i32 noundef 184, i64 noundef %21)
  %22 = load ptr, ptr %6, align 8
  %23 = call ptr @systable_beginscan(ptr noundef %22, i32 noundef 2701, i1 noundef zeroext true, ptr noundef null, i32 noundef 1, ptr noundef %12)
  store ptr %23, ptr %11, align 8
  br label %24

24:                                               ; preds = %86, %5
  %25 = load ptr, ptr %11, align 8
  %26 = call ptr @systable_getnext(ptr noundef %25)
  store ptr %26, ptr %13, align 8
  %27 = icmp ne ptr %26, null
  br i1 %27, label %28, label %88

28:                                               ; preds = %24
  call void @llvm.lifetime.start.p0(i64 8, ptr %14) #12
  %29 = load ptr, ptr %13, align 8
  %30 = call ptr @GETSTRUCT(ptr noundef %29)
  store ptr %30, ptr %14, align 8
  call void @llvm.lifetime.start.p0(i64 8, ptr %15) #12
  %31 = load ptr, ptr %14, align 8
  %32 = getelementptr inbounds nuw %struct.FormData_pg_trigger, ptr %31, i32 0, i32 2
  %33 = load i32, ptr %32, align 4
  %34 = load i32, ptr %8, align 4
  %35 = icmp ne i32 %33, %34
  br i1 %35, label %36, label %37

36:                                               ; preds = %28
  store i32 2, ptr %16, align 4
  br label %86, !llvm.loop !18

37:                                               ; preds = %28
  %38 = load i32, ptr %7, align 4
  %39 = call ptr @table_open(i32 noundef %38, i32 noundef 0)
  store ptr %39, ptr %15, align 8
  %40 = load ptr, ptr %6, align 8
  %41 = load ptr, ptr %15, align 8
  %42 = load ptr, ptr %13, align 8
  %43 = load ptr, ptr %9, align 8
  %44 = load ptr, ptr %10, align 8
  call void @renametrig_internal(ptr noundef %40, ptr noundef %41, ptr noundef %42, ptr noundef %43, ptr noundef %44)
  %45 = load ptr, ptr %15, align 8
  %46 = getelementptr inbounds nuw %struct.RelationData, ptr %45, i32 0, i32 13
  %47 = load ptr, ptr %46, align 8
  %48 = getelementptr inbounds nuw %struct.FormData_pg_class, ptr %47, i32 0, i32 16
  %49 = load i8, ptr %48, align 1
  %50 = sext i8 %49 to i32
  %51 = icmp eq i32 %50, 112
  br i1 %51, label %52, label %84

52:                                               ; preds = %37
  call void @llvm.lifetime.start.p0(i64 8, ptr %17) #12
  %53 = load ptr, ptr %15, align 8
  %54 = call ptr @RelationGetPartitionDesc(ptr noundef %53, i1 noundef zeroext true)
  store ptr %54, ptr %17, align 8
  call void @llvm.lifetime.start.p0(i64 4, ptr %18) #12
  store i32 0, ptr %18, align 4
  br label %55

55:                                               ; preds = %80, %52
  %56 = load i32, ptr %18, align 4
  %57 = load ptr, ptr %17, align 8
  %58 = getelementptr inbounds nuw %struct.PartitionDescData, ptr %57, i32 0, i32 0
  %59 = load i32, ptr %58, align 8
  %60 = icmp slt i32 %56, %59
  br i1 %60, label %62, label %61

61:                                               ; preds = %55
  store i32 4, ptr %16, align 4
  call void @llvm.lifetime.end.p0(i64 4, ptr %18) #12
  br label %83

62:                                               ; preds = %55
  call void @llvm.lifetime.start.p0(i64 4, ptr %19) #12
  %63 = load ptr, ptr %17, align 8
  %64 = getelementptr inbounds nuw %struct.PartitionDescData, ptr %63, i32 0, i32 2
  %65 = load ptr, ptr %64, align 8
  %66 = load i32, ptr %18, align 4
  %67 = sext i32 %66 to i64
  %68 = getelementptr inbounds i32, ptr %65, i64 %67
  %69 = load i32, ptr %68, align 4
  store i32 %69, ptr %19, align 4
  %70 = load ptr, ptr %6, align 8
  %71 = load i32, ptr %19, align 4
  %72 = load ptr, ptr %14, align 8
  %73 = getelementptr inbounds nuw %struct.FormData_pg_trigger, ptr %72, i32 0, i32 0
  %74 = load i32, ptr %73, align 4
  %75 = load ptr, ptr %9, align 8
  %76 = load ptr, ptr %14, align 8
  %77 = getelementptr inbounds nuw %struct.FormData_pg_trigger, ptr %76, i32 0, i32 3
  %78 = getelementptr inbounds nuw %struct.nameData, ptr %77, i32 0, i32 0
  %79 = getelementptr inbounds [64 x i8], ptr %78, i64 0, i64 0
  call void @renametrig_partition(ptr noundef %70, i32 noundef %71, i32 noundef %74, ptr noundef %75, ptr noundef %79)
  call void @llvm.lifetime.end.p0(i64 4, ptr %19) #12
  br label %80

80:                                               ; preds = %62
  %81 = load i32, ptr %18, align 4
  %82 = add i32 %81, 1
  store i32 %82, ptr %18, align 4
  br label %55, !llvm.loop !19

83:                                               ; preds = %61
  call void @llvm.lifetime.end.p0(i64 8, ptr %17) #12
  br label %84

84:                                               ; preds = %83, %37
  %85 = load ptr, ptr %15, align 8
  call void @table_close(ptr noundef %85, i32 noundef 0)
  store i32 3, ptr %16, align 4
  br label %86

86:                                               ; preds = %84, %36
  call void @llvm.lifetime.end.p0(i64 8, ptr %15) #12
  call void @llvm.lifetime.end.p0(i64 8, ptr %14) #12
  %87 = load i32, ptr %16, align 4
  switch i32 %87, label %90 [
    i32 2, label %24
    i32 3, label %88
  ]

88:                                               ; preds = %86, %24
  %89 = load ptr, ptr %11, align 8
  call void @systable_endscan(ptr noundef %89)
  call void @llvm.lifetime.end.p0(i64 8, ptr %13) #12
  call void @llvm.lifetime.end.p0(i64 72, ptr %12) #12
  call void @llvm.lifetime.end.p0(i64 8, ptr %11) #12
  ret void

90:                                               ; preds = %86
  unreachable
}