; Function Attrs: nounwind uwtable
define internal fastcc void @renametrig_partition(ptr noundef %0, i32 noundef %1, i32 noundef %2, ptr noundef %3, ptr noundef readonly captures(none) %4) unnamed_addr #0 {
  %6 = alloca %struct.ScanKeyData, align 8
  call void @llvm.lifetime.start.p0(i64 72, ptr nonnull %6) #16
  %7 = zext i32 %1 to i64
  call void @ScanKeyInit(ptr noundef nonnull %6, i16 noundef signext 2, i16 noundef zeroext 3, i32 noundef 184, i64 noundef %7) #16
  %8 = call ptr @systable_beginscan(ptr noundef %0, i32 noundef 2701, i1 noundef zeroext true, ptr noundef null, i32 noundef 1, ptr noundef nonnull %6) #16
  br label %9

9:                                                ; preds = %11, %5
  %10 = call ptr @systable_getnext(ptr noundef %8) #16
  %.not = icmp eq ptr %10, null
  br i1 %.not, label %.loopexit, label %11

11:                                               ; preds = %9
  %12 = getelementptr i8, ptr %10, i64 16
  %.val = load ptr, ptr %12, align 8
  %13 = getelementptr inbounds nuw i8, ptr %.val, i64 22
  %14 = load i8, ptr %13, align 2
  %15 = zext i8 %14 to i64
  %16 = getelementptr inbounds nuw i8, ptr %.val, i64 %15
  %17 = getelementptr inbounds nuw i8, ptr %16, i64 8
  %18 = load i32, ptr %17, align 4
  %.not28 = icmp eq i32 %18, %2
  br i1 %.not28, label %19, label %9, !llvm.loop !15

19:                                               ; preds = %11
  %20 = call ptr @table_open(i32 noundef %1, i32 noundef 0) #16
  call fastcc void @renametrig_internal(ptr noundef %0, ptr noundef %20, ptr noundef %10, ptr noundef %3, ptr noundef %4)
  %21 = getelementptr inbounds nuw i8, ptr %20, i64 56
  %22 = load ptr, ptr %21, align 8
  %23 = getelementptr inbounds nuw i8, ptr %22, i64 115
  %24 = load i8, ptr %23, align 1
  %25 = icmp eq i8 %24, 112
  br i1 %25, label %26, label %.thread

26:                                               ; preds = %19
  %27 = call ptr @RelationGetPartitionDesc(ptr noundef nonnull %20, i1 noundef zeroext true) #16
  %28 = load i32, ptr %27, align 8
  %29 = icmp sgt i32 %28, 0
  br i1 %29, label %.lr.ph, label %.thread

.lr.ph:                                           ; preds = %26
  %30 = getelementptr inbounds nuw i8, ptr %27, i64 8
  %31 = getelementptr inbounds nuw i8, ptr %16, i64 12
  br label %32

32:                                               ; preds = %.lr.ph, %32
  %indvars.iv = phi i64 [ 0, %.lr.ph ], [ %indvars.iv.next, %32 ]
  %33 = load ptr, ptr %30, align 8
  %34 = getelementptr inbounds nuw i32, ptr %33, i64 %indvars.iv
  %35 = load i32, ptr %34, align 4
  %36 = load i32, ptr %16, align 4
  call fastcc void @renametrig_partition(ptr noundef %0, i32 noundef %35, i32 noundef %36, ptr noundef %3, ptr noundef nonnull %31)
  %indvars.iv.next = add nuw nsw i64 %indvars.iv, 1
  %37 = load i32, ptr %27, align 8
  %38 = sext i32 %37 to i64
  %39 = icmp slt i64 %indvars.iv.next, %38
  br i1 %39, label %32, label %.thread, !llvm.loop !16

.thread:                                          ; preds = %32, %26, %19
  call void @table_close(ptr noundef %20, i32 noundef 0) #16
  br label %.loopexit

.loopexit:                                        ; preds = %9, %.thread
  call void @systable_endscan(ptr noundef %8) #16
  call void @llvm.lifetime.end.p0(i64 72, ptr nonnull %6) #16
  ret void
}